; ModuleID = '54/386.c'
source_filename = "54/386.c"
target datalayout = "e-m:e-p270:32:32-p271:32:32-p272:64:64-i64:64-f80:128-n8:16:32:64-S128"
target triple = "x86_64-pc-linux-gnu"

@.str = private unnamed_addr constant [5 x i8] c"%d%d\00", align 1
@.str.1 = private unnamed_addr constant [4 x i8] c"%d\0A\00", align 1

; Function Attrs: noinline nounwind uwtable
define dso_local void @main() #0 {
  %1 = alloca i32, align 4
  %2 = alloca i32, align 4
  %3 = alloca i32, align 4
  %4 = alloca i32, align 4
  %5 = alloca i32, align 4
  %6 = call i32 (i8*, ...) @__isoc99_scanf(i8* getelementptr inbounds ([5 x i8], [5 x i8]* @.str, i64 0, i64 0), i32* %1, i32* %2)
  %7 = load i32, i32* %1, align 4
  %8 = load i32, i32* %2, align 4
  %9 = add nsw i32 %7, %8
  store i32 %9, i32* %3, align 4
  br label %10

10:                                               ; preds = %49, %0
  %11 = load i32, i32* %3, align 4
  store i32 %11, i32* %5, align 4
  store i32 1, i32* %4, align 4
  br label %12

12:                                               ; preds = %38, %10
  %13 = load i32, i32* %4, align 4
  %14 = load i32, i32* %1, align 4
  %15 = icmp sle i32 %13, %14
  br i1 %15, label %16, label %41

16:                                               ; preds = %12
  %17 = load i32, i32* %5, align 4
  %18 = load i32, i32* %2, align 4
  %19 = sub nsw i32 %17, %18
  %20 = load i32, i32* %1, align 4
  %21 = srem i32 %19, %20
  %22 = icmp ne i32 %21, 0
  br i1 %22, label %23, label %24

23:                                               ; preds = %16
  store i32 0, i32* %5, align 4
  br label %41

24:                                               ; preds = %16
  %25 = load i32, i32* %5, align 4
  %26 = load i32, i32* %5, align 4
  %27 = load i32, i32* %1, align 4
  %28 = sdiv i32 %26, %27
  %29 = sub nsw i32 %25, %28
  %30 = load i32, i32* %2, align 4
  %31 = sub nsw i32 %29, %30
  store i32 %31, i32* %5, align 4
  %32 = load i32, i32* %5, align 4
  %33 = load i32, i32* %1, align 4
  %34 = sub nsw i32 %33, 1
  %35 = icmp slt i32 %32, %34
  br i1 %35, label %36, label %37

36:                                               ; preds = %24
  br label %41

37:                                               ; preds = %24
  br label %38

38:                                               ; preds = %37
  %39 = load i32, i32* %4, align 4
  %40 = add nsw i32 %39, 1
  store i32 %40, i32* %4, align 4
  br label %12

41:                                               ; preds = %36, %23, %12
  %42 = load i32, i32* %5, align 4
  %43 = load i32, i32* %1, align 4
  %44 = sub nsw i32 %43, 1
  %45 = icmp sge i32 %42, %44
  br i1 %45, label %46, label %49

46:                                               ; preds = %41
  %47 = load i32, i32* %3, align 4
  %48 = call i32 (i8*, ...) @printf(i8* getelementptr inbounds ([4 x i8], [4 x i8]* @.str.1, i64 0, i64 0), i32 %47)
  br label %53

49:                                               ; preds = %41
  %50 = load i32, i32* %3, align 4
  %51 = load i32, i32* %1, align 4
  %52 = add nsw i32 %50, %51
  store i32 %52, i32* %3, align 4
  br label %10

53:                                               ; preds = %46
  ret void
}

declare dso_local i32 @__isoc99_scanf(i8*, ...) #1

declare dso_local i32 @printf(i8*, ...) #1


!llvm.module.flags = !{!0}
!llvm.ident = !{!1}

!0 = !{i32 1, !"wchar_size", i32 4}
!1 = !{!"clang version 10.0.0-4ubuntu1 "}
