; ModuleID = 'source-C-CXX/53/386.c'
source_filename = "source-C-CXX/53/386.c"
target datalayout = "e-m:e-p270:32:32-p271:32:32-p272:64:64-i64:64-f80:128-n8:16:32:64-S128"
target triple = "x86_64-pc-linux-gnu"

@.str = private unnamed_addr constant [5 x i8] c"%d%d\00", align 1
@.str.1 = private unnamed_addr constant [4 x i8] c"%d\0A\00", align 1

; Function Attrs: nofree nounwind sspstrong uwtable
define dso_local void @main() local_unnamed_addr #0 {
  %1 = alloca i32, align 4
  %2 = alloca i32, align 4
  %3 = bitcast i32* %1 to i8*
  call void @llvm.lifetime.start.p0i8(i64 4, i8* nonnull %3) #3
  %4 = bitcast i32* %2 to i8*
  call void @llvm.lifetime.start.p0i8(i64 4, i8* nonnull %4) #3
  %5 = call i32 (i8*, ...) @__isoc99_scanf(i8* getelementptr inbounds ([5 x i8], [5 x i8]* @.str, i64 0, i64 0), i32* nonnull %1, i32* nonnull %2)
  %6 = load i32, i32* %1, align 4, !tbaa !5
  %7 = load i32, i32* %2, align 4, !tbaa !5
  %8 = add nsw i32 %7, %6
  %9 = add nsw i32 %6, -1
  %10 = icmp slt i32 %6, 1
  br i1 %10, label %11, label %15

11:                                               ; preds = %0, %11
  %12 = phi i32 [ %14, %11 ], [ %8, %0 ]
  %13 = icmp slt i32 %12, %9
  %14 = add nsw i32 %12, %6
  br i1 %13, label %11, label %35

15:                                               ; preds = %0, %31
  %16 = phi i32 [ %34, %31 ], [ %8, %0 ]
  br label %17

17:                                               ; preds = %23, %15
  %18 = phi i32 [ %16, %15 ], [ %26, %23 ]
  %19 = phi i32 [ 1, %15 ], [ %28, %23 ]
  %20 = sub nsw i32 %18, %7
  %21 = srem i32 %20, %6
  %22 = icmp eq i32 %21, 0
  br i1 %22, label %23, label %31

23:                                               ; preds = %17
  %24 = sdiv i32 %18, %6
  %25 = add i32 %7, %24
  %26 = sub i32 %18, %25
  %27 = icmp slt i32 %26, %9
  %28 = add nuw nsw i32 %19, 1
  %29 = icmp sge i32 %19, %6
  %30 = select i1 %27, i1 true, i1 %29
  br i1 %30, label %31, label %17, !llvm.loop !9

31:                                               ; preds = %23, %17
  %32 = phi i32 [ 0, %17 ], [ %26, %23 ]
  %33 = icmp slt i32 %32, %9
  %34 = add nsw i32 %16, %6
  br i1 %33, label %15, label %35

35:                                               ; preds = %31, %11
  %36 = phi i32 [ %12, %11 ], [ %16, %31 ]
  %37 = call i32 (i8*, ...) @printf(i8* nonnull dereferenceable(1) getelementptr inbounds ([4 x i8], [4 x i8]* @.str.1, i64 0, i64 0), i32 %36)
  call void @llvm.lifetime.end.p0i8(i64 4, i8* nonnull %4) #3
  call void @llvm.lifetime.end.p0i8(i64 4, i8* nonnull %3) #3
  ret void
}

; Function Attrs: argmemonly mustprogress nofree nosync nounwind willreturn
declare void @llvm.lifetime.start.p0i8(i64 immarg, i8* nocapture) #1

; Function Attrs: nofree nounwind
declare noundef i32 @__isoc99_scanf(i8* nocapture noundef readonly, ...) local_unnamed_addr #2

; Function Attrs: nofree nounwind
declare noundef i32 @printf(i8* nocapture noundef readonly, ...) local_unnamed_addr #2

; Function Attrs: argmemonly mustprogress nofree nosync nounwind willreturn
declare void @llvm.lifetime.end.p0i8(i64 immarg, i8* nocapture) #1


!llvm.module.flags = !{!0, !1, !2, !3}
!llvm.ident = !{!4}

!0 = !{i32 1, !"wchar_size", i32 4}
!1 = !{i32 7, !"PIC Level", i32 2}
!2 = !{i32 7, !"PIE Level", i32 2}
!3 = !{i32 7, !"uwtable", i32 1}
!4 = !{!"clang version 13.0.0"}
!5 = !{!6, !6, i64 0}
!6 = !{!"int", !7, i64 0}
!7 = !{!"omnipotent char", !8, i64 0}
!8 = !{!"Simple C/C++ TBAA"}
!9 = distinct !{!9, !10}
!10 = !{!"llvm.loop.mustprogress"}
